target datalayout = "e-m:e-p270:32:32-p271:32:32-p272:64:64-i64:64-i128:128-f80:128-n8:16:32:64-S128"
target triple = "x86_64-pc-linux-gnu"

%union.pthread_mutex_t = type { %struct.__pthread_mutex_s }
%struct.__pthread_mutex_s = type { i32, i32, i32, i32, i32, i16, i16, %struct.__pthread_internal_list }
%struct.__pthread_internal_list = type { ptr, ptr }
%union.pthread_cond_t = type { %struct.__pthread_cond_s }
%struct.__pthread_cond_s = type { %union.__atomic_wide_counter, %union.__atomic_wide_counter, [2 x i32], [2 x i32], i32, i32, [2 x i32] }
%union.__atomic_wide_counter = type { i64 }
%struct.thread_params = type { i64, ptr, i32, i32, i32, i32, i32, i32, %union.pthread_mutex_t, %union.pthread_cond_t, ptr }

@progress_mutex = internal global %union.pthread_mutex_t zeroinitializer, align 8
@progress_cond = internal global %union.pthread_cond_t zeroinitializer, align 8

; Function Attrs: nounwind uwtable
define internal ptr @threaded_find_deltas(ptr noundef %0) #0 {
  %2 = alloca ptr, align 8
  %3 = alloca ptr, align 8
  store ptr %0, ptr %2, align 8, !tbaa !134
  call void @llvm.lifetime.start.p0(i64 8, ptr %3) #11
  %4 = load ptr, ptr %2, align 8, !tbaa !134
  store ptr %4, ptr %3, align 8, !tbaa !296
  %5 = call i32 @pthread_mutex_lock(ptr noundef @progress_mutex) #11
  br label %6

6:                                                ; preds = %47, %1
  %7 = load ptr, ptr %3, align 8, !tbaa !296
  %8 = getelementptr inbounds nuw %struct.thread_params, ptr %7, i32 0, i32 3
  %9 = load i32, ptr %8, align 4, !tbaa !307
  %10 = icmp ne i32 %9, 0
  br i1 %10, label %11, label %54

11:                                               ; preds = %6
  %12 = call i32 @pthread_mutex_unlock(ptr noundef @progress_mutex) #11
  %13 = load ptr, ptr %3, align 8, !tbaa !296
  %14 = getelementptr inbounds nuw %struct.thread_params, ptr %13, i32 0, i32 1
  %15 = load ptr, ptr %14, align 8, !tbaa !305
  %16 = load ptr, ptr %3, align 8, !tbaa !296
  %17 = getelementptr inbounds nuw %struct.thread_params, ptr %16, i32 0, i32 3
  %18 = load ptr, ptr %3, align 8, !tbaa !296
  %19 = getelementptr inbounds nuw %struct.thread_params, ptr %18, i32 0, i32 4
  %20 = load i32, ptr %19, align 8, !tbaa !298
  %21 = load ptr, ptr %3, align 8, !tbaa !296
  %22 = getelementptr inbounds nuw %struct.thread_params, ptr %21, i32 0, i32 5
  %23 = load i32, ptr %22, align 4, !tbaa !300
  %24 = load ptr, ptr %3, align 8, !tbaa !296
  %25 = getelementptr inbounds nuw %struct.thread_params, ptr %24, i32 0, i32 10
  %26 = load ptr, ptr %25, align 8, !tbaa !301
  call void @find_deltas(ptr noundef %15, ptr noundef %17, i32 noundef %20, i32 noundef %23, ptr noundef %26)
  %27 = call i32 @pthread_mutex_lock(ptr noundef @progress_mutex) #11
  %28 = load ptr, ptr %3, align 8, !tbaa !296
  %29 = getelementptr inbounds nuw %struct.thread_params, ptr %28, i32 0, i32 6
  store i32 0, ptr %29, align 8, !tbaa !302
  %30 = call i32 @pthread_cond_signal(ptr noundef @progress_cond) #11
  %31 = call i32 @pthread_mutex_unlock(ptr noundef @progress_mutex) #11
  %32 = load ptr, ptr %3, align 8, !tbaa !296
  %33 = getelementptr inbounds nuw %struct.thread_params, ptr %32, i32 0, i32 8
  %34 = call i32 @pthread_mutex_lock(ptr noundef %33) #11
  br label %35

35:                                               ; preds = %41, %11
  %36 = load ptr, ptr %3, align 8, !tbaa !296
  %37 = getelementptr inbounds nuw %struct.thread_params, ptr %36, i32 0, i32 7
  %38 = load i32, ptr %37, align 4, !tbaa !303
  %39 = icmp ne i32 %38, 0
  %40 = xor i1 %39, true
  br i1 %40, label %41, label %47

41:                                               ; preds = %35
  %42 = load ptr, ptr %3, align 8, !tbaa !296
  %43 = getelementptr inbounds nuw %struct.thread_params, ptr %42, i32 0, i32 9
  %44 = load ptr, ptr %3, align 8, !tbaa !296
  %45 = getelementptr inbounds nuw %struct.thread_params, ptr %44, i32 0, i32 8
  %46 = call i32 @pthread_cond_wait(ptr noundef %43, ptr noundef %45)
  br label %35, !llvm.loop !348

47:                                               ; preds = %35
  %48 = load ptr, ptr %3, align 8, !tbaa !296
  %49 = getelementptr inbounds nuw %struct.thread_params, ptr %48, i32 0, i32 7
  store i32 0, ptr %49, align 4, !tbaa !303
  %50 = load ptr, ptr %3, align 8, !tbaa !296
  %51 = getelementptr inbounds nuw %struct.thread_params, ptr %50, i32 0, i32 8
  %52 = call i32 @pthread_mutex_unlock(ptr noundef %51) #11
  %53 = call i32 @pthread_mutex_lock(ptr noundef @progress_mutex) #11
  br label %6, !llvm.loop !349

54:                                               ; preds = %6
  %55 = call i32 @pthread_mutex_unlock(ptr noundef @progress_mutex) #11
  call void @llvm.lifetime.end.p0(i64 8, ptr %3) #11
  ret ptr null
}