; Function Attrs: nounwind uwtable
define internal noalias noundef ptr @threaded_find_deltas(ptr noundef %0) #0 {
  %2 = tail call i32 @pthread_mutex_lock(ptr noundef nonnull @progress_mutex) #25
  %3 = getelementptr inbounds nuw i8, ptr %0, i64 20
  %4 = load i32, ptr %3, align 4, !tbaa !201
  %.not16 = icmp eq i32 %4, 0
  br i1 %.not16, label %._crit_edge19, label %.lr.ph18

.lr.ph18:                                         ; preds = %1
  %5 = getelementptr inbounds nuw i8, ptr %0, i64 8
  %6 = getelementptr inbounds nuw i8, ptr %0, i64 24
  %7 = getelementptr inbounds nuw i8, ptr %0, i64 28
  %8 = getelementptr inbounds nuw i8, ptr %0, i64 128
  %9 = getelementptr inbounds nuw i8, ptr %0, i64 32
  %10 = getelementptr inbounds nuw i8, ptr %0, i64 40
  %11 = getelementptr inbounds nuw i8, ptr %0, i64 36
  %12 = getelementptr inbounds nuw i8, ptr %0, i64 80
  br label %13

13:                                               ; preds = %.lr.ph18, %._crit_edge
  %14 = tail call i32 @pthread_mutex_unlock(ptr noundef nonnull @progress_mutex) #25
  %15 = load ptr, ptr %5, align 8, !tbaa !199
  %16 = load i32, ptr %6, align 8, !tbaa !190
  %17 = load i32, ptr %7, align 4, !tbaa !193
  %18 = load ptr, ptr %8, align 8, !tbaa !194
  tail call fastcc void @find_deltas(ptr noundef %15, ptr noundef nonnull %3, i32 noundef %16, i32 noundef %17, ptr noundef %18)
  %19 = tail call i32 @pthread_mutex_lock(ptr noundef nonnull @progress_mutex) #25
  store i32 0, ptr %9, align 8, !tbaa !195
  %20 = tail call i32 @pthread_cond_signal(ptr noundef nonnull @progress_cond) #25
  %21 = tail call i32 @pthread_mutex_unlock(ptr noundef nonnull @progress_mutex) #25
  %22 = tail call i32 @pthread_mutex_lock(ptr noundef nonnull %10) #25
  %23 = load i32, ptr %11, align 4, !tbaa !196
  %.not1415 = icmp eq i32 %23, 0
  br i1 %.not1415, label %.lr.ph, label %._crit_edge

.lr.ph:                                           ; preds = %13, %.lr.ph
  %24 = tail call i32 @pthread_cond_wait(ptr noundef nonnull %12, ptr noundef nonnull %10) #25
  %25 = load i32, ptr %11, align 4, !tbaa !196
  %.not14 = icmp eq i32 %25, 0
  br i1 %.not14, label %.lr.ph, label %._crit_edge, !llvm.loop !347

._crit_edge:                                      ; preds = %.lr.ph, %13
  store i32 0, ptr %11, align 4, !tbaa !196
  %26 = tail call i32 @pthread_mutex_unlock(ptr noundef nonnull %10) #25
  %27 = tail call i32 @pthread_mutex_lock(ptr noundef nonnull @progress_mutex) #25
  %28 = load i32, ptr %3, align 4, !tbaa !201
  %.not = icmp eq i32 %28, 0
  br i1 %.not, label %._crit_edge19, label %13, !llvm.loop !348

._crit_edge19:                                    ; preds = %._crit_edge, %1
  %29 = tail call i32 @pthread_mutex_unlock(ptr noundef nonnull @progress_mutex) #25
  ret ptr null
}